ccopy_reg
_reconstructor
p0
(cvocab
Vocab
p1
c__builtin__
object
p2
Ntp3
Rp4
(dp5
S'vocab_size'
p6
I84
sS'token_counts'
p7
(lp8
I41
aI5688737
aI72
aI3186
aI17
aI34
aI85
aI7936
aI48
aI50
aI44465
aI5475
aI445935
aI260
aI513
aI559
aI675
aI553
aI338
aI382
aI197
aI171
aI153
aI223
aI234
aI197
aI591753
aI591753
aI2392
aI11
aI143
aI376684
aI11360
aI11016
aI7858
aI19457
aI10902
aI9089
aI11026
aI16045
aI638
aI3211
aI10766
aI11438
aI14895
aI15210
aI14568
aI168
aI12038
aI28626
aI91868
aI3810
aI4373
aI10186
aI159
aI3618
aI948
aI10
aI2482020
aI536491
aI639936
aI922560
aI2398330
aI519891
aI805104
aI984808
aI1914778
aI16847
aI339422
aI1098214
aI442658
aI2038917
aI1954802
aI613872
aI7726
aI1446824
aI1423531
aI1959175
aI496506
aI138473
aI591491
aI47246
aI289565
aI48209
asS'word_to_idx'
p9
(dp10
S'\n'
p11
I28
sS'<UNK>'
p12
I0
sS'!'
p13
I2
sS' '
p14
I1
sS'#'
p15
I4
sS'"'
p16
I3
sS'$'
p17
I5
sS"'"
p18
I7
sS'&'
p19
I6
sS')'
p20
I9
sS'('
p21
I8
sS'-'
p22
I11
sS','
p23
I10
sS'/'
p24
I13
sS'.'
p25
I12
sS'1'
p26
I15
sS'0'
p27
I14
sS'3'
p28
I17
sS'2'
p29
I16
sS'5'
p30
I19
sS'4'
p31
I18
sS'7'
p32
I21
sS'6'
p33
I20
sS'9'
p34
I23
sS'8'
p35
I22
sS';'
p36
I25
sS':'
p37
I24
sS'='
p38
I29
sS'?'
p39
I30
sS'A'
p40
I31
sS'C'
p41
I33
sS'B'
p42
I32
sS'E'
p43
I35
sS'D'
p44
I34
sS'G'
p45
I37
sS'F'
p46
I36
sS'<S>'
p47
I27
sS'H'
p48
I38
sS'K'
p49
I41
sS'J'
p50
I40
sS'M'
p51
I43
sS'L'
p52
I42
sS'O'
p53
I45
sS'N'
p54
I44
sS'Q'
p55
I47
sS'P'
p56
I46
sS'S'
p57
I49
sS'R'
p58
I48
sS'U'
p59
I51
sS'T'
p60
I50
sS'W'
p61
I53
sS'V'
p62
I52
sS'Y'
p63
I55
sS'X'
p64
I54
sS'Z'
p65
I56
sS'a'
p66
I58
sS'`'
p67
I57
sS'c'
p68
I60
sS'b'
p69
I59
sS'I'
p70
I39
sS'd'
p71
I61
sS'g'
p72
I64
sS'f'
p73
I63
sS'i'
p74
I66
sS'h'
p75
I65
sS'k'
p76
I68
sS'j'
p77
I67
sS'm'
p78
I70
sS'l'
p79
I69
sS'o'
p80
I72
sS'n'
p81
I71
sS'q'
p82
I74
sS'p'
p83
I73
sS's'
p84
I76
sS'r'
p85
I75
sS'u'
p86
I78
sS't'
p87
I77
sS'w'
p88
I80
sS'v'
p89
I79
sS'y'
p90
I82
sS'x'
p91
I81
sS'z'
p92
I83
sS'</S>'
p93
I26
sS'e'
p94
I62
ssS'idx_to_word'
p95
(dp96
I0
g12
sI1
g14
sI2
g13
sI3
g16
sI4
g15
sI5
g17
sI6
g19
sI7
g18
sI8
g21
sI9
g20
sI10
g23
sI11
g22
sI12
g25
sI13
g24
sI14
g27
sI15
g26
sI16
g29
sI17
g28
sI18
g31
sI19
g30
sI20
g33
sI21
g32
sI22
g35
sI23
g34
sI24
g37
sI25
g36
sI26
g93
sI27
g47
sI28
g11
sI29
g38
sI30
g39
sI31
g40
sI32
g42
sI33
g41
sI34
g44
sI35
g43
sI36
g46
sI37
g45
sI38
g48
sI39
g70
sI40
g50
sI41
g49
sI42
g52
sI43
g51
sI44
g54
sI45
g53
sI46
g56
sI47
g55
sI48
g58
sI49
g57
sI50
g60
sI51
g59
sI52
g62
sI53
g61
sI54
g64
sI55
g63
sI56
g65
sI57
g67
sI58
g66
sI59
g69
sI60
g68
sI61
g71
sI62
g94
sI63
g73
sI64
g72
sI65
g75
sI66
g74
sI67
g77
sI68
g76
sI69
g79
sI70
g78
sI71
g81
sI72
g80
sI73
g83
sI74
g82
sI75
g85
sI76
g84
sI77
g87
sI78
g86
sI79
g89
sI80
g88
sI81
g91
sI82
g90
sI83
g92
ssS'unk_symbol'
p97
S'<UNK>'
p98
sb.