ccopy_reg
_reconstructor
p0
(cvocab
Vocab
p1
c__builtin__
object
p2
Ntp3
Rp4
(dp5
S'vocab_size'
p6
I3
sS'token_counts'
p7
(lp8
I0
aI0
aI591753
asS'word_to_idx'
p9
(dp10
S's0'
p11
I2
sS'</S>'
p12
I1
sS'<UNK>'
p13
I0
ssS'idx_to_word'
p14
(dp15
I0
g13
sI1
g12
sI2
g11
ssS'unk_symbol'
p16
S'<UNK>'
p17
sb.